##
##  ca-bundle.crt -- Bundle of Certum CA Root Certificates
##

Certum Level I
==============
MD5 Fingerprint: 18:02:BE:8D:E5:54:F1:A2:A4:AC:3D:C4:38:5A:AF:6D
PEM Data:
-----BEGIN CERTIFICATE-----
MIICjDCCAfWgAwIBAgIBADANBgkqhkiG9w0BAQUFADBDMQswCQYDVQQGEwJQTDEb
MBkGA1UEChMSVW5pemV0byBTcC4geiBvLm8uMRcwFQYDVQQDEw5DZXJ0dW0gTGV2
ZWwgSTAeFw0wMDA0MjcxMDMyMTJaFw0wNTA0MjYxMDMyMTJaMEMxCzAJBgNVBAYT
AlBMMRswGQYDVQQKExJVbml6ZXRvIFNwLiB6IG8uby4xFzAVBgNVBAMTDkNlcnR1
bSBMZXZlbCBJMIGfMA0GCSqGSIb3DQEBAQUAA4GNADCBiQKBgQCl73pZ9DFcn7Qy
0qBZK+So18cav7drUrJ8SiYOlDDVskt81+eIcL/4FelTSGjuAOvYdmm+HGYG998R
PB0iZ+Ak67vXFJ537vRWOcu6aMjNuAwu8BOdc5eSgB0Y8X4+3LOYfugtaZa8mrEQ
8Hit0yLE9UBcU9J+4PmkVGecmZ8jZQIDAQABo4GPMIGMMB0GA1UdDgQWBBRHqGfp
lru/Pcd5HU5miMmLxyP99DBrBgNVHSMEZDBigBRHqGfplru/Pcd5HU5miMmLxyP9
9KFHpEUwQzELMAkGA1UEBhMCUEwxGzAZBgNVBAoTElVuaXpldG8gU3AuIHogby5v
LjEXMBUGA1UEAxMOQ2VydHVtIExldmVsIEmCAQAwDQYJKoZIhvcNAQEFBQADgYEA
W9JlvQHqUzOF3JxP2Rhn5mIhX2ix9A3vS1L3h0lBk+WY0CaK9qPzck+M4feFfImU
8iyhXoXcsnnqr9KJJcEcdsKn/2+ooBldjewfJQiNhiqpNqFJOMeWq3W9ClTJsYYo
NGiGdnkd+9ONMUum8GbtzIvnzF7fK6mwLEKLWfU9Tqg=
-----END CERTIFICATE-----
Certificate Ingredients:
    Data:
        Version: 3 (0x2)
        Serial Number: 0 (0x0)
        Signature Algorithm: sha1WithRSAEncryption
        Issuer: C=PL, O=Unizeto Sp. z o.o., CN=Certum Level I
        Validity
            Not Before: Apr 27 10:32:12 2000 GMT
            Not After : Apr 26 10:32:12 2005 GMT
        Subject: C=PL, O=Unizeto Sp. z o.o., CN=Certum Level I
        Subject Public Key Info:
            Public Key Algorithm: rsaEncryption
            RSA Public Key: (1024 bit)
                Modulus (1024 bit):
                    00:a5:ef:7a:59:f4:31:5c:9f:b4:32:d2:a0:59:2b:
                    e4:a8:d7:c7:1a:bf:b7:6b:52:b2:7c:4a:26:0e:94:
                    30:d5:b2:4b:7c:d7:e7:88:70:bf:f8:15:e9:53:48:
                    68:ee:00:eb:d8:76:69:be:1c:66:06:f7:df:11:3c:
                    1d:22:67:e0:24:eb:bb:d7:14:9e:77:ee:f4:56:39:
                    cb:ba:68:c8:cd:b8:0c:2e:f0:13:9d:73:97:92:80:
                    1d:18:f1:7e:3e:dc:b3:98:7e:e8:2d:69:96:bc:9a:
                    b1:10:f0:78:ad:d3:22:c4:f5:40:5c:53:d2:7e:e0:
                    f9:a4:54:67:9c:99:9f:23:65
                Exponent: 65537 (0x10001)
        X509v3 extensions:
            X509v3 Subject Key Identifier: 
                47:A8:67:E9:96:BB:BF:3D:C7:79:1D:4E:66:88:C9:8B:C7:23:FD:F4
            X509v3 Authority Key Identifier: 
                keyid:47:A8:67:E9:96:BB:BF:3D:C7:79:1D:4E:66:88:C9:8B:C7:23:FD:F4
                DirName:/C=PL/O=Unizeto Sp. z o.o./CN=Certum Level I
                serial:00

    Signature Algorithm: sha1WithRSAEncryption
        5b:d2:65:bd:01:ea:53:33:85:dc:9c:4f:d9:18:67:e6:62:21:
        5f:68:b1:f4:0d:ef:4b:52:f7:87:49:41:93:e5:98:d0:26:8a:
        f6:a3:f3:72:4f:8c:e1:f7:85:7c:89:94:f2:2c:a1:5e:85:dc:
        b2:79:ea:af:d2:89:25:c1:1c:76:c2:a7:ff:6f:a8:a0:19:5d:
        8d:ec:1f:25:08:8d:86:2a:a9:36:a1:49:38:c7:96:ab:75:bd:
        0a:54:c9:b1:86:28:34:68:86:76:79:1d:fb:d3:8d:31:4b:a6:
        f0:66:ed:cc:8b:e7:cc:5e:df:2b:a9:b0:2c:42:8b:59:f5:3d:
        4e:a8

Certum Level II
===============
MD5 Fingerprint: B9:4C:16:AD:2D:F8:6D:A0:3E:13:17:72:7A:F3:83:1D
PEM Data:
-----BEGIN CERTIFICATE-----
MIICkzCCAfygAwIBAgIDAQEtMA0GCSqGSIb3DQEBBAUAMEQxCzAJBgNVBAYTAlBM
MRswGQYDVQQKExJVbml6ZXRvIFNwLiB6IG8uby4xGDAWBgNVBAMTD0NlcnR1bSBM
ZXZlbCBJSTAeFw0wMDA2MDUwOTA1NDRaFw0wNTA2MDQwOTA1NDRaMEQxCzAJBgNV
BAYTAlBMMRswGQYDVQQKExJVbml6ZXRvIFNwLiB6IG8uby4xGDAWBgNVBAMTD0Nl
cnR1bSBMZXZlbCBJSTCBnzANBgkqhkiG9w0BAQEFAAOBjQAwgYkCgYEAyMQSaN5f
A94hNE46bMKpGUb5yIPEowReGZzGttYBQnC6oUOy+iM3md8WerzXeBKf7iIZEDW2
HAp7BKhS4rMB6taxT07vDtkNfEKwOk6X7dODw6KY4mxnzjmjh5pf2feKKJ3MoZxi
2HAz2a6JvHKFMq8dAlGL2GBtLvzlFp2jwkMCAwEAAaOBkjCBjzAdBgNVHQ4EFgQU
APvp9D7MMjHFLkLGmqF9AEdKBq4wbgYDVR0jBGcwZYAUAPvp9D7MMjHFLkLGmqF9
AEdKBq6hSKRGMEQxCzAJBgNVBAYTAlBMMRswGQYDVQQKExJVbml6ZXRvIFNwLiB6
IG8uby4xGDAWBgNVBAMTD0NlcnR1bSBMZXZlbCBJSYIDAQEtMA0GCSqGSIb3DQEB
BAUAA4GBAMQs/Eu+qJNk4HUqqkCjuZgVjnuxz/Z/cw0MyWcmIra2LqSwPc93rkDU
eOxU1E7ciFatHE3zsrXFjRItEWZyAzHhAVZAC+iwZv/9E1yOtgdshej/mTwfqB22
HIPenIqjhSVmLUl0SY7aujD1Pffee1MlaRSLrKN6oQa5REinXedj
-----END CERTIFICATE-----
Certificate Ingredients:
    Data:
        Version: 3 (0x2)
        Serial Number: 65837 (0x1012d)
        Signature Algorithm: md5WithRSAEncryption
        Issuer: C=PL, O=Unizeto Sp. z o.o., CN=Certum Level II
        Validity
            Not Before: Jun  5 09:05:44 2000 GMT
            Not After : Jun  4 09:05:44 2005 GMT
        Subject: C=PL, O=Unizeto Sp. z o.o., CN=Certum Level II
        Subject Public Key Info:
            Public Key Algorithm: rsaEncryption
            RSA Public Key: (1024 bit)
                Modulus (1024 bit):
                    00:c8:c4:12:68:de:5f:03:de:21:34:4e:3a:6c:c2:
                    a9:19:46:f9:c8:83:c4:a3:04:5e:19:9c:c6:b6:d6:
                    01:42:70:ba:a1:43:b2:fa:23:37:99:df:16:7a:bc:
                    d7:78:12:9f:ee:22:19:10:35:b6:1c:0a:7b:04:a8:
                    52:e2:b3:01:ea:d6:b1:4f:4e:ef:0e:d9:0d:7c:42:
                    b0:3a:4e:97:ed:d3:83:c3:a2:98:e2:6c:67:ce:39:
                    a3:87:9a:5f:d9:f7:8a:28:9d:cc:a1:9c:62:d8:70:
                    33:d9:ae:89:bc:72:85:32:af:1d:02:51:8b:d8:60:
                    6d:2e:fc:e5:16:9d:a3:c2:43
                Exponent: 65537 (0x10001)
        X509v3 extensions:
            X509v3 Subject Key Identifier: 
                00:FB:E9:F4:3E:CC:32:31:C5:2E:42:C6:9A:A1:7D:00:47:4A:06:AE
            X509v3 Authority Key Identifier: 
                keyid:00:FB:E9:F4:3E:CC:32:31:C5:2E:42:C6:9A:A1:7D:00:47:4A:06:AE
                DirName:/C=PL/O=Unizeto Sp. z o.o./CN=Certum Level II
                serial:01:01:2D

    Signature Algorithm: md5WithRSAEncryption
        c4:2c:fc:4b:be:a8:93:64:e0:75:2a:aa:40:a3:b9:98:15:8e:
        7b:b1:cf:f6:7f:73:0d:0c:c9:67:26:22:b6:b6:2e:a4:b0:3d:
        cf:77:ae:40:d4:78:ec:54:d4:4e:dc:88:56:ad:1c:4d:f3:b2:
        b5:c5:8d:12:2d:11:66:72:03:31:e1:01:56:40:0b:e8:b0:66:
        ff:fd:13:5c:8e:b6:07:6c:85:e8:ff:99:3c:1f:a8:1d:b6:1c:
        83:de:9c:8a:a3:85:25:66:2d:49:74:49:8e:da:ba:30:f5:3d:
        f7:de:7b:53:25:69:14:8b:ac:a3:7a:a1:06:b9:44:48:a7:5d:
        e7:63

Certum Level III
================
MD5 Fingerprint: 74:2D:2E:F3:E7:F6:8C:63:56:25:15:1B:9C:60:C9:38
PEM Data:
-----BEGIN CERTIFICATE-----
MIICljCCAf+gAwIBAgIDAQEvMA0GCSqGSIb3DQEBBAUAMEUxCzAJBgNVBAYTAlBM
MRswGQYDVQQKExJVbml6ZXRvIFNwLiB6IG8uby4xGTAXBgNVBAMTEENlcnR1bSBM
ZXZlbCBJSUkwHhcNMDAwNjA1MDkxMzA2WhcNMDUwNjA0MDkxMzA2WjBFMQswCQYD
VQQGEwJQTDEbMBkGA1UEChMSVW5pemV0byBTcC4geiBvLm8uMRkwFwYDVQQDExBD
ZXJ0dW0gTGV2ZWwgSUlJMIGfMA0GCSqGSIb3DQEBAQUAA4GNADCBiQKBgQC2YwW3
xhZpbC4z3qVmg8BtC6oRddZVimm2h4tbEISt6qJh2OxJu6qS9dXVENb7DHJ56c8/
ydABB+ig4fsgMl1dUhP7VU6C2GAcmSviRmnC2CGBfWgsFfAIasszhrqzuUF+ry26
FwdljZ8Jl4cjVSlIJ1FcuJLQEdqmSSMOQY7J/wIDAQABo4GTMIGQMB0GA1UdDgQW
BBRb6yOAoqJdv18xAMJ3iG/ro7myiTBvBgNVHSMEaDBmgBRb6yOAoqJdv18xAMJ3
iG/ro7myiaFJpEcwRTELMAkGA1UEBhMCUEwxGzAZBgNVBAoTElVuaXpldG8gU3Au
IHogby5vLjEZMBcGA1UEAxMQQ2VydHVtIExldmVsIElJSYIDAQEvMA0GCSqGSIb3
DQEBBAUAA4GBAJZt7TvCOqOH9CpsSOCrr8zqwc/ABPCdG7/L+hEqMI+RMJL/wphH
k+trzggQSf6gc1hZOhz+WHvLYO+VUHO6RpxIB7UYAkrq4MIQhScMrx453gE7kkcy
fAuipXlh6IsX+Wwm9sVuhv1of4gfykP7qX9Ep+yLzt8nAZorxXkhg2vJ
-----END CERTIFICATE-----
Certificate Ingredients:
    Data:
        Version: 3 (0x2)
        Serial Number: 65839 (0x1012f)
        Signature Algorithm: md5WithRSAEncryption
        Issuer: C=PL, O=Unizeto Sp. z o.o., CN=Certum Level III
        Validity
            Not Before: Jun  5 09:13:06 2000 GMT
            Not After : Jun  4 09:13:06 2005 GMT
        Subject: C=PL, O=Unizeto Sp. z o.o., CN=Certum Level III
        Subject Public Key Info:
            Public Key Algorithm: rsaEncryption
            RSA Public Key: (1024 bit)
                Modulus (1024 bit):
                    00:b6:63:05:b7:c6:16:69:6c:2e:33:de:a5:66:83:
                    c0:6d:0b:aa:11:75:d6:55:8a:69:b6:87:8b:5b:10:
                    84:ad:ea:a2:61:d8:ec:49:bb:aa:92:f5:d5:d5:10:
                    d6:fb:0c:72:79:e9:cf:3f:c9:d0:01:07:e8:a0:e1:
                    fb:20:32:5d:5d:52:13:fb:55:4e:82:d8:60:1c:99:
                    2b:e2:46:69:c2:d8:21:81:7d:68:2c:15:f0:08:6a:
                    cb:33:86:ba:b3:b9:41:7e:af:2d:ba:17:07:65:8d:
                    9f:09:97:87:23:55:29:48:27:51:5c:b8:92:d0:11:
                    da:a6:49:23:0e:41:8e:c9:ff
                Exponent: 65537 (0x10001)
        X509v3 extensions:
            X509v3 Subject Key Identifier: 
                5B:EB:23:80:A2:A2:5D:BF:5F:31:00:C2:77:88:6F:EB:A3:B9:B2:89
            X509v3 Authority Key Identifier: 
                keyid:5B:EB:23:80:A2:A2:5D:BF:5F:31:00:C2:77:88:6F:EB:A3:B9:B2:89
                DirName:/C=PL/O=Unizeto Sp. z o.o./CN=Certum Level III
                serial:01:01:2F

    Signature Algorithm: md5WithRSAEncryption
        96:6d:ed:3b:c2:3a:a3:87:f4:2a:6c:48:e0:ab:af:cc:ea:c1:
        cf:c0:04:f0:9d:1b:bf:cb:fa:11:2a:30:8f:91:30:92:ff:c2:
        98:47:93:eb:6b:ce:08:10:49:fe:a0:73:58:59:3a:1c:fe:58:
        7b:cb:60:ef:95:50:73:ba:46:9c:48:07:b5:18:02:4a:ea:e0:
        c2:10:85:27:0c:af:1e:39:de:01:3b:92:47:32:7c:0b:a2:a5:
        79:61:e8:8b:17:f9:6c:26:f6:c5:6e:86:fd:68:7f:88:1f:ca:
        43:fb:a9:7f:44:a7:ec:8b:ce:df:27:01:9a:2b:c5:79:21:83:
        6b:c9

Certum Level IV
===============
MD5 Fingerprint: 93:3F:3C:7C:E4:B2:3C:53:97:6B:9C:62:13:66:8D:8C
PEM Data:
-----BEGIN CERTIFICATE-----
MIICkzCCAfygAwIBAgIDAQEwMA0GCSqGSIb3DQEBBAUAMEQxCzAJBgNVBAYTAlBM
MRswGQYDVQQKExJVbml6ZXRvIFNwLiB6IG8uby4xGDAWBgNVBAMTD0NlcnR1bSBM
ZXZlbCBJVjAeFw0wMDA2MDUwOTE5NDFaFw0wNjA2MDQwOTE5NDFaMEQxCzAJBgNV
BAYTAlBMMRswGQYDVQQKExJVbml6ZXRvIFNwLiB6IG8uby4xGDAWBgNVBAMTD0Nl
cnR1bSBMZXZlbCBJVjCBnzANBgkqhkiG9w0BAQEFAAOBjQAwgYkCgYEAmyb1lKqC
AKE4juAy6lpVNUl6aJ2DuWPSiJ3BBk3/6ty6I4Lr2Dpy1b1vjVelhaFsVKEDgK2J
yQlk9XMqLPZI2Ql166mJiPKFg77aY/W78EcQfGyjnRvVcs0tG40mAs/p84OEpFcV
e/RSqDrD/D7R01u+Wj5xLl0PUsFplIGDbikCAwEAAaOBkjCBjzAdBgNVHQ4EFgQU
JqgcDhIwDhcH7vpZ1BTJ87rTIFIwbgYDVR0jBGcwZYAUJqgcDhIwDhcH7vpZ1BTJ
87rTIFKhSKRGMEQxCzAJBgNVBAYTAlBMMRswGQYDVQQKExJVbml6ZXRvIFNwLiB6
IG8uby4xGDAWBgNVBAMTD0NlcnR1bSBMZXZlbCBJVoIDAQEwMA0GCSqGSIb3DQEB
BAUAA4GBAEvfrwYlhtHmUaa7vPO5duHX9WEDDr2sqj2r2BIn0hZY67iAsT2ldmTg
T4KQGGcuijWqNcPtezW3P7cjrvv+NkXRABdCsW1C5EvzyXOGyIbrST0tE7dmzrzo
X788hWb7x//szSYshz7/1l9VYCTWZTwLdwvbN4uE7+Fm6YHhztdd
-----END CERTIFICATE-----
Certificate Ingredients:
    Data:
        Version: 3 (0x2)
        Serial Number: 65840 (0x10130)
        Signature Algorithm: md5WithRSAEncryption
        Issuer: C=PL, O=Unizeto Sp. z o.o., CN=Certum Level IV
        Validity
            Not Before: Jun  5 09:19:41 2000 GMT
            Not After : Jun  4 09:19:41 2006 GMT
        Subject: C=PL, O=Unizeto Sp. z o.o., CN=Certum Level IV
        Subject Public Key Info:
            Public Key Algorithm: rsaEncryption
            RSA Public Key: (1024 bit)
                Modulus (1024 bit):
                    00:9b:26:f5:94:aa:82:00:a1:38:8e:e0:32:ea:5a:
                    55:35:49:7a:68:9d:83:b9:63:d2:88:9d:c1:06:4d:
                    ff:ea:dc:ba:23:82:eb:d8:3a:72:d5:bd:6f:8d:57:
                    a5:85:a1:6c:54:a1:03:80:ad:89:c9:09:64:f5:73:
                    2a:2c:f6:48:d9:09:75:eb:a9:89:88:f2:85:83:be:
                    da:63:f5:bb:f0:47:10:7c:6c:a3:9d:1b:d5:72:cd:
                    2d:1b:8d:26:02:cf:e9:f3:83:84:a4:57:15:7b:f4:
                    52:a8:3a:c3:fc:3e:d1:d3:5b:be:5a:3e:71:2e:5d:
                    0f:52:c1:69:94:81:83:6e:29
                Exponent: 65537 (0x10001)
        X509v3 extensions:
            X509v3 Subject Key Identifier: 
                26:A8:1C:0E:12:30:0E:17:07:EE:FA:59:D4:14:C9:F3:BA:D3:20:52
            X509v3 Authority Key Identifier: 
                keyid:26:A8:1C:0E:12:30:0E:17:07:EE:FA:59:D4:14:C9:F3:BA:D3:20:52
                DirName:/C=PL/O=Unizeto Sp. z o.o./CN=Certum Level IV
                serial:01:01:30

    Signature Algorithm: md5WithRSAEncryption
        4b:df:af:06:25:86:d1:e6:51:a6:bb:bc:f3:b9:76:e1:d7:f5:
        61:03:0e:bd:ac:aa:3d:ab:d8:12:27:d2:16:58:eb:b8:80:b1:
        3d:a5:76:64:e0:4f:82:90:18:67:2e:8a:35:aa:35:c3:ed:7b:
        35:b7:3f:b7:23:ae:fb:fe:36:45:d1:00:17:42:b1:6d:42:e4:
        4b:f3:c9:73:86:c8:86:eb:49:3d:2d:13:b7:66:ce:bc:e8:5f:
        bf:3c:85:66:fb:c7:ff:ec:cd:26:2c:87:3e:ff:d6:5f:55:60:
        24:d6:65:3c:0b:77:0b:db:37:8b:84:ef:e1:66:e9:81:e1:ce:
        d7:5d
